; Function Attrs: mustprogress uwtable
define internal void @_ZN11opencv_test12_GLOBAL__N_115ZeroOpticalFlow4calcERKN2cv11_InputArrayES5_RKNS2_12_OutputArrayES8_(ptr nonnull readnone align 8 captures(none) %0, ptr noundef nonnull align 8 dereferenceable(24) %1, ptr nonnull readnone align 8 captures(none) %2, ptr noundef nonnull align 8 dereferenceable(24) %3, ptr noundef nonnull align 8 dereferenceable(24) %4) unnamed_addr #4 align 2 personality ptr @__gxx_personality_v0 {
  %6 = alloca %"class.cv::_InputArray", align 8
  %7 = alloca %"class.cv::Scalar_", align 8
  %8 = alloca %"class.cv::_InputArray", align 8
  %9 = alloca %"class.cv::_InputArray", align 8
  %10 = alloca %"class.cv::Scalar_", align 8
  %11 = alloca %"class.cv::_InputArray", align 8
  %12 = alloca %"class.cv::_InputArray", align 8
  %13 = alloca %"class.cv::Scalar_", align 8
  %14 = alloca %"class.cv::_InputArray", align 8
  %15 = tail call i64 @_ZNK2cv11_InputArray4sizeEi(ptr noundef nonnull align 8 dereferenceable(24) %1, i32 noundef -1)
  %16 = tail call noundef zeroext i1 @_ZNK2cv12_OutputArray6neededEv(ptr noundef nonnull align 8 dereferenceable(24) %4)
  br i1 %16, label %21, label %17

17:                                               ; preds = %5
  tail call void @_ZNK2cv12_OutputArray6createENS_5Size_IiEEiibNS0_9DepthMaskE(ptr noundef nonnull align 8 dereferenceable(24) %3, i64 %15, i32 noundef 13, i32 noundef -1, i1 noundef zeroext false, i32 noundef 0)
  call void @llvm.lifetime.start.p0(i64 24, ptr nonnull %6) #31
  call void @llvm.lifetime.start.p0(i64 32, ptr nonnull %7) #31
  %18 = getelementptr inbounds nuw i8, ptr %6, i64 16
  call void @llvm.memset.p0.i64(ptr noundef nonnull align 8 dereferenceable(32) %7, i8 0, i64 32, i1 false)
  store i32 -1056833530, ptr %6, align 8, !tbaa !76
  %19 = getelementptr inbounds nuw i8, ptr %6, i64 8
  store ptr %7, ptr %19, align 8, !tbaa !79
  store i64 17179869185, ptr %18, align 8
  call void @llvm.lifetime.start.p0(i64 24, ptr nonnull %8) #31
  store i32 0, ptr %8, align 8, !tbaa !76
  %20 = getelementptr inbounds nuw i8, ptr %8, i64 8
  call void @llvm.memset.p0.i64(ptr noundef nonnull align 8 dereferenceable(16) %20, i8 0, i64 16, i1 false)
  call void @_ZNK2cv12_OutputArray5setToERKNS_11_InputArrayES3_(ptr noundef nonnull align 8 dereferenceable(24) %3, ptr noundef nonnull align 8 dereferenceable(24) %6, ptr noundef nonnull align 8 dereferenceable(24) %8)
  call void @llvm.lifetime.end.p0(i64 24, ptr nonnull %8) #31
  call void @llvm.lifetime.end.p0(i64 32, ptr nonnull %7) #31
  call void @llvm.lifetime.end.p0(i64 24, ptr nonnull %6) #31
  br label %28

21:                                               ; preds = %5
  tail call void @_ZNK2cv12_OutputArray6createENS_5Size_IiEEiibNS0_9DepthMaskE(ptr noundef nonnull align 8 dereferenceable(24) %3, i64 %15, i32 noundef 5, i32 noundef -1, i1 noundef zeroext false, i32 noundef 0)
  tail call void @_ZNK2cv12_OutputArray6createENS_5Size_IiEEiibNS0_9DepthMaskE(ptr noundef nonnull align 8 dereferenceable(24) %4, i64 %15, i32 noundef 5, i32 noundef -1, i1 noundef zeroext false, i32 noundef 0)
  call void @llvm.lifetime.start.p0(i64 24, ptr nonnull %9) #31
  call void @llvm.lifetime.start.p0(i64 32, ptr nonnull %10) #31
  %22 = getelementptr inbounds nuw i8, ptr %9, i64 16
  call void @llvm.memset.p0.i64(ptr noundef nonnull align 8 dereferenceable(32) %10, i8 0, i64 32, i1 false)
  store i32 -1056833530, ptr %9, align 8, !tbaa !76
  %23 = getelementptr inbounds nuw i8, ptr %9, i64 8
  store ptr %10, ptr %23, align 8, !tbaa !79
  store i64 17179869185, ptr %22, align 8
  call void @llvm.lifetime.start.p0(i64 24, ptr nonnull %11) #31
  store i32 0, ptr %11, align 8, !tbaa !76
  %24 = getelementptr inbounds nuw i8, ptr %11, i64 8
  call void @llvm.memset.p0.i64(ptr noundef nonnull align 8 dereferenceable(16) %24, i8 0, i64 16, i1 false)
  call void @_ZNK2cv12_OutputArray5setToERKNS_11_InputArrayES3_(ptr noundef nonnull align 8 dereferenceable(24) %3, ptr noundef nonnull align 8 dereferenceable(24) %9, ptr noundef nonnull align 8 dereferenceable(24) %11)
  call void @llvm.lifetime.end.p0(i64 24, ptr nonnull %11) #31
  call void @llvm.lifetime.end.p0(i64 32, ptr nonnull %10) #31
  call void @llvm.lifetime.end.p0(i64 24, ptr nonnull %9) #31
  call void @llvm.lifetime.start.p0(i64 24, ptr nonnull %12) #31
  call void @llvm.lifetime.start.p0(i64 32, ptr nonnull %13) #31
  %25 = getelementptr inbounds nuw i8, ptr %12, i64 16
  call void @llvm.memset.p0.i64(ptr noundef nonnull align 8 dereferenceable(32) %13, i8 0, i64 32, i1 false)
  store i32 -1056833530, ptr %12, align 8, !tbaa !76
  %26 = getelementptr inbounds nuw i8, ptr %12, i64 8
  store ptr %13, ptr %26, align 8, !tbaa !79
  store i64 17179869185, ptr %25, align 8
  call void @llvm.lifetime.start.p0(i64 24, ptr nonnull %14) #31
  store i32 0, ptr %14, align 8, !tbaa !76
  %27 = getelementptr inbounds nuw i8, ptr %14, i64 8
  call void @llvm.memset.p0.i64(ptr noundef nonnull align 8 dereferenceable(16) %27, i8 0, i64 16, i1 false)
  call void @_ZNK2cv12_OutputArray5setToERKNS_11_InputArrayES3_(ptr noundef nonnull align 8 dereferenceable(24) %4, ptr noundef nonnull align 8 dereferenceable(24) %12, ptr noundef nonnull align 8 dereferenceable(24) %14)
  call void @llvm.lifetime.end.p0(i64 24, ptr nonnull %14) #31
  call void @llvm.lifetime.end.p0(i64 32, ptr nonnull %13) #31
  call void @llvm.lifetime.end.p0(i64 24, ptr nonnull %12) #31
  br label %28

28:                                               ; preds = %21, %17
  ret void
}